target datalayout = "e-m:e-p270:32:32-p271:32:32-p272:64:64-i64:64-i128:128-f80:128-n8:16:32:64-S128"
target triple = "x86_64-pc-linux-gnu"

%"class.Luau::(anonymous namespace)::TypeCloner" = type <{ %"struct.Luau::NotNull", %"struct.Luau::NotNull.1", %"class.std::vector", %"struct.Luau::NotNull.2", %"struct.Luau::NotNull.3", ptr, ptr, i32, [4 x i8] }>
%"struct.Luau::NotNull" = type { ptr }
%"struct.Luau::NotNull.1" = type { ptr }
%"class.std::vector" = type { %"struct.std::_Vector_base" }
%"struct.std::_Vector_base" = type { %"struct.std::_Vector_base<Luau::Variant<const Luau::Type *, const Luau::TypePackVar *>, std::allocator<Luau::Variant<const Luau::Type *, const Luau::TypePackVar *>>>::_Vector_impl" }
%"struct.std::_Vector_base<Luau::Variant<const Luau::Type *, const Luau::TypePackVar *>, std::allocator<Luau::Variant<const Luau::Type *, const Luau::TypePackVar *>>>::_Vector_impl" = type { %"struct.std::_Vector_base<Luau::Variant<const Luau::Type *, const Luau::TypePackVar *>, std::allocator<Luau::Variant<const Luau::Type *, const Luau::TypePackVar *>>>::_Vector_impl_data" }
%"struct.std::_Vector_base<Luau::Variant<const Luau::Type *, const Luau::TypePackVar *>, std::allocator<Luau::Variant<const Luau::Type *, const Luau::TypePackVar *>>>::_Vector_impl_data" = type { ptr, ptr, ptr }
%"struct.Luau::NotNull.2" = type { ptr }
%"struct.Luau::NotNull.3" = type { ptr }
%"struct.Luau::TypePackVar" = type { %"class.Luau::Variant", i8, ptr }
%"class.Luau::Variant" = type { i32, [4 x i8], [64 x i8] }
%"struct.Luau::CloneState" = type { %"struct.Luau::NotNull.1", %"class.std::unordered_map", %"class.std::unordered_map.20" }
%"class.std::unordered_map" = type { %"class.std::_Hashtable" }
%"class.std::_Hashtable" = type { ptr, i64, %"struct.std::__detail::_Hash_node_base", i64, %"struct.std::__detail::_Prime_rehash_policy", ptr }
%"struct.std::__detail::_Hash_node_base" = type { ptr }
%"struct.std::__detail::_Prime_rehash_policy" = type { float, i64 }
%"class.std::unordered_map.20" = type { %"class.std::_Hashtable.21" }
%"class.std::_Hashtable.21" = type { ptr, i64, %"struct.std::__detail::_Hash_node_base", i64, %"struct.std::__detail::_Prime_rehash_policy", ptr }

; Function Attrs: mustprogress nounwind uwtable
define linkonce_odr dso_local void @_ZNSt15__new_allocatorIN4Luau7VariantIJPKNS0_4TypeEPKNS0_11TypePackVarEEEEEC2Ev(ptr noundef nonnull align 1 dereferenceable(1) %0) unnamed_addr #2 comdat align 2 {
  %2 = alloca ptr, align 8
  store ptr %0, ptr %2, align 8, !tbaa !223
  ret void
}

; Function Attrs: mustprogress nounwind uwtable
define linkonce_odr dso_local void @_ZNSt12_Vector_baseIN4Luau7VariantIJPKNS0_4TypeEPKNS0_11TypePackVarEEEESaIS8_EE17_Vector_impl_dataC2Ev(ptr noundef nonnull align 8 dereferenceable(24) %0) unnamed_addr #2 comdat align 2 {
  %2 = alloca ptr, align 8
  store ptr %0, ptr %2, align 8, !tbaa !218
  %3 = load ptr, ptr %2, align 8
  %4 = getelementptr inbounds nuw %"struct.std::_Vector_base<Luau::Variant<const Luau::Type *, const Luau::TypePackVar *>, std::allocator<Luau::Variant<const Luau::Type *, const Luau::TypePackVar *>>>::_Vector_impl_data", ptr %3, i32 0, i32 0
  store ptr null, ptr %4, align 8, !tbaa !220
  %5 = getelementptr inbounds nuw %"struct.std::_Vector_base<Luau::Variant<const Luau::Type *, const Luau::TypePackVar *>, std::allocator<Luau::Variant<const Luau::Type *, const Luau::TypePackVar *>>>::_Vector_impl_data", ptr %3, i32 0, i32 1
  store ptr null, ptr %5, align 8, !tbaa !221
  %6 = getelementptr inbounds nuw %"struct.std::_Vector_base<Luau::Variant<const Luau::Type *, const Luau::TypePackVar *>, std::allocator<Luau::Variant<const Luau::Type *, const Luau::TypePackVar *>>>::_Vector_impl_data", ptr %3, i32 0, i32 2
  store ptr null, ptr %6, align 8, !tbaa !222
  ret void
}

; Function Attrs: mustprogress nounwind uwtable
define linkonce_odr dso_local void @_ZNSaIN4Luau7VariantIJPKNS_4TypeEPKNS_11TypePackVarEEEEEC2Ev(ptr noundef nonnull align 1 dereferenceable(1) %0) unnamed_addr #2 comdat align 2 {
  %2 = alloca ptr, align 8
  store ptr %0, ptr %2, align 8, !tbaa !216
  %3 = load ptr, ptr %2, align 8
  call void @_ZNSt15__new_allocatorIN4Luau7VariantIJPKNS0_4TypeEPKNS0_11TypePackVarEEEEEC2Ev(ptr noundef nonnull align 1 dereferenceable(1) %3) #18
  ret void
}

; Function Attrs: mustprogress nounwind uwtable
define linkonce_odr dso_local void @_ZNSt12_Vector_baseIN4Luau7VariantIJPKNS0_4TypeEPKNS0_11TypePackVarEEEESaIS8_EE12_Vector_implC2Ev(ptr noundef nonnull align 8 dereferenceable(24) %0) unnamed_addr #2 comdat align 2 {
  %2 = alloca ptr, align 8
  store ptr %0, ptr %2, align 8, !tbaa !214
  %3 = load ptr, ptr %2, align 8
  call void @_ZNSaIN4Luau7VariantIJPKNS_4TypeEPKNS_11TypePackVarEEEEEC2Ev(ptr noundef nonnull align 1 dereferenceable(1) %3) #18
  call void @_ZNSt12_Vector_baseIN4Luau7VariantIJPKNS0_4TypeEPKNS0_11TypePackVarEEEESaIS8_EE17_Vector_impl_dataC2Ev(ptr noundef nonnull align 8 dereferenceable(24) %3) #18
  ret void
}

; Function Attrs: mustprogress nounwind uwtable
define linkonce_odr dso_local void @_ZNSt12_Vector_baseIN4Luau7VariantIJPKNS0_4TypeEPKNS0_11TypePackVarEEEESaIS8_EEC2Ev(ptr noundef nonnull align 8 dereferenceable(24) %0) unnamed_addr #2 comdat align 2 {
  %2 = alloca ptr, align 8
  store ptr %0, ptr %2, align 8, !tbaa !212
  %3 = load ptr, ptr %2, align 8
  %4 = getelementptr inbounds nuw %"struct.std::_Vector_base", ptr %3, i32 0, i32 0
  call void @_ZNSt12_Vector_baseIN4Luau7VariantIJPKNS0_4TypeEPKNS0_11TypePackVarEEEESaIS8_EE12_Vector_implC2Ev(ptr noundef nonnull align 8 dereferenceable(24) %4) #18
  ret void
}

; Function Attrs: mustprogress nounwind uwtable
define linkonce_odr dso_local void @_ZNSt6vectorIN4Luau7VariantIJPKNS0_4TypeEPKNS0_11TypePackVarEEEESaIS8_EEC2Ev(ptr noundef nonnull align 8 dereferenceable(24) %0) unnamed_addr #2 comdat align 2 {
  %2 = alloca ptr, align 8
  store ptr %0, ptr %2, align 8, !tbaa !210
  %3 = load ptr, ptr %2, align 8
  call void @_ZNSt12_Vector_baseIN4Luau7VariantIJPKNS0_4TypeEPKNS0_11TypePackVarEEEESaIS8_EEC2Ev(ptr noundef nonnull align 8 dereferenceable(24) %3) #18
  ret void
}

; Function Attrs: mustprogress nounwind uwtable
define internal void @_ZN4Luau12_GLOBAL__N_110TypeClonerC2ENS_7NotNullINS_9TypeArenaEEENS2_INS_12BuiltinTypesEEENS2_ISt13unordered_mapIPKNS_4TypeESA_St4hashISA_ESt8equal_toISA_ESaISt4pairIKSA_SA_EEEEENS2_IS7_IPKNS_11TypePackVarESN_SB_ISN_ESD_ISN_ESaISF_IKSN_SN_EEEEESA_SN_(ptr noundef nonnull align 8 dereferenceable(76) %0, ptr %1, ptr %2, ptr %3, ptr %4, ptr noundef %5, ptr noundef %6) unnamed_addr #2 align 2 {
  %8 = alloca %"struct.Luau::NotNull", align 8
  %9 = alloca %"struct.Luau::NotNull.1", align 8
  %10 = alloca %"struct.Luau::NotNull.2", align 8
  %11 = alloca %"struct.Luau::NotNull.3", align 8
  %12 = alloca ptr, align 8
  %13 = alloca ptr, align 8
  %14 = alloca ptr, align 8
  %15 = getelementptr inbounds nuw %"struct.Luau::NotNull", ptr %8, i32 0, i32 0
  store ptr %1, ptr %15, align 8
  %16 = getelementptr inbounds nuw %"struct.Luau::NotNull.1", ptr %9, i32 0, i32 0
  store ptr %2, ptr %16, align 8
  %17 = getelementptr inbounds nuw %"struct.Luau::NotNull.2", ptr %10, i32 0, i32 0
  store ptr %3, ptr %17, align 8
  %18 = getelementptr inbounds nuw %"struct.Luau::NotNull.3", ptr %11, i32 0, i32 0
  store ptr %4, ptr %18, align 8
  store ptr %0, ptr %12, align 8, !tbaa !54
  store ptr %5, ptr %13, align 8, !tbaa !56
  store ptr %6, ptr %14, align 8, !tbaa !22
  %19 = load ptr, ptr %12, align 8
  %20 = getelementptr inbounds nuw %"class.Luau::(anonymous namespace)::TypeCloner", ptr %19, i32 0, i32 0
  call void @llvm.memcpy.p0.p0.i64(ptr align 8 %20, ptr align 8 %8, i64 8, i1 false), !tbaa.struct !58
  %21 = getelementptr inbounds nuw %"class.Luau::(anonymous namespace)::TypeCloner", ptr %19, i32 0, i32 1
  call void @llvm.memcpy.p0.p0.i64(ptr align 8 %21, ptr align 8 %9, i64 8, i1 false), !tbaa.struct !31
  %22 = getelementptr inbounds nuw %"class.Luau::(anonymous namespace)::TypeCloner", ptr %19, i32 0, i32 2
  call void @_ZNSt6vectorIN4Luau7VariantIJPKNS0_4TypeEPKNS0_11TypePackVarEEEESaIS8_EEC2Ev(ptr noundef nonnull align 8 dereferenceable(24) %22) #18
  %23 = getelementptr inbounds nuw %"class.Luau::(anonymous namespace)::TypeCloner", ptr %19, i32 0, i32 3
  call void @llvm.memcpy.p0.p0.i64(ptr align 8 %23, ptr align 8 %10, i64 8, i1 false), !tbaa.struct !59
  %24 = getelementptr inbounds nuw %"class.Luau::(anonymous namespace)::TypeCloner", ptr %19, i32 0, i32 4
  call void @llvm.memcpy.p0.p0.i64(ptr align 8 %24, ptr align 8 %11, i64 8, i1 false), !tbaa.struct !60
  %25 = getelementptr inbounds nuw %"class.Luau::(anonymous namespace)::TypeCloner", ptr %19, i32 0, i32 5
  %26 = load ptr, ptr %13, align 8, !tbaa !56
  store ptr %26, ptr %25, align 8, !tbaa !61
  %27 = getelementptr inbounds nuw %"class.Luau::(anonymous namespace)::TypeCloner", ptr %19, i32 0, i32 6
  %28 = load ptr, ptr %14, align 8, !tbaa !22
  store ptr %28, ptr %27, align 8, !tbaa !69
  %29 = getelementptr inbounds nuw %"class.Luau::(anonymous namespace)::TypeCloner", ptr %19, i32 0, i32 7
  store i32 0, ptr %29, align 8, !tbaa !70
  ret void
}

; Function Attrs: mustprogress nounwind uwtable
define linkonce_odr dso_local void @_ZN4Luau7NotNullISt13unordered_mapIPKNS_11TypePackVarES4_St4hashIS4_ESt8equal_toIS4_ESaISt4pairIKS4_S4_EEEEC2EPSD_(ptr noundef nonnull align 8 dereferenceable(8) %0, ptr noundef %1) unnamed_addr #2 comdat align 2 {
  %3 = alloca ptr, align 8
  %4 = alloca ptr, align 8
  store ptr %0, ptr %3, align 8, !tbaa !48
  store ptr %1, ptr %4, align 8, !tbaa !50
  %5 = load ptr, ptr %3, align 8
  %6 = getelementptr inbounds nuw %"struct.Luau::NotNull.3", ptr %5, i32 0, i32 0
  %7 = load ptr, ptr %4, align 8, !tbaa !50
  store ptr %7, ptr %6, align 8, !tbaa !52
  ret void
}

; Function Attrs: mustprogress nounwind uwtable
define linkonce_odr dso_local void @_ZN4Luau7NotNullISt13unordered_mapIPKNS_4TypeES4_St4hashIS4_ESt8equal_toIS4_ESaISt4pairIKS4_S4_EEEEC2EPSD_(ptr noundef nonnull align 8 dereferenceable(8) %0, ptr noundef %1) unnamed_addr #2 comdat align 2 {
  %3 = alloca ptr, align 8
  %4 = alloca ptr, align 8
  store ptr %0, ptr %3, align 8, !tbaa !42
  store ptr %1, ptr %4, align 8, !tbaa !44
  %5 = load ptr, ptr %3, align 8
  %6 = getelementptr inbounds nuw %"struct.Luau::NotNull.2", ptr %5, i32 0, i32 0
  %7 = load ptr, ptr %4, align 8, !tbaa !44
  store ptr %7, ptr %6, align 8, !tbaa !46
  ret void
}

; Function Attrs: mustprogress nounwind uwtable
define linkonce_odr dso_local void @_ZN4Luau7NotNullINS_9TypeArenaEEC2EPS1_(ptr noundef nonnull align 8 dereferenceable(8) %0, ptr noundef %1) unnamed_addr #2 comdat align 2 {
  %3 = alloca ptr, align 8
  %4 = alloca ptr, align 8
  store ptr %0, ptr %3, align 8, !tbaa !38
  store ptr %1, ptr %4, align 8, !tbaa !24
  %5 = load ptr, ptr %3, align 8
  %6 = getelementptr inbounds nuw %"struct.Luau::NotNull", ptr %5, i32 0, i32 0
  %7 = load ptr, ptr %4, align 8, !tbaa !24
  store ptr %7, ptr %6, align 8, !tbaa !40
  ret void
}

; Function Attrs: mustprogress uwtable
define dso_local noundef ptr @_ZN4Luau5cloneEPKNS_11TypePackVarERNS_9TypeArenaERNS_10CloneStateE(ptr noundef %0, ptr noundef nonnull align 8 dereferenceable(88) %1, ptr noundef nonnull align 8 dereferenceable(120) %2) #3 personality ptr @__gxx_personality_v0 {
  %4 = alloca ptr, align 8
  %5 = alloca ptr, align 8
  %6 = alloca ptr, align 8
  %7 = alloca ptr, align 8
  %8 = alloca %"class.Luau::(anonymous namespace)::TypeCloner", align 8
  %9 = alloca %"struct.Luau::NotNull", align 8
  %10 = alloca %"struct.Luau::NotNull.1", align 8
  %11 = alloca %"struct.Luau::NotNull.2", align 8
  %12 = alloca %"struct.Luau::NotNull.3", align 8
  %13 = alloca ptr, align 8
  %14 = alloca i32, align 4
  store ptr %0, ptr %5, align 8, !tbaa !22
  store ptr %1, ptr %6, align 8, !tbaa !24
  store ptr %2, ptr %7, align 8, !tbaa !26
  %15 = load ptr, ptr %5, align 8, !tbaa !22
  %16 = getelementptr inbounds nuw %"struct.Luau::TypePackVar", ptr %15, i32 0, i32 1
  %17 = load i8, ptr %16, align 8, !tbaa !28, !range !17, !noundef !18
  %18 = trunc i8 %17 to i1
  br i1 %18, label %19, label %21

19:                                               ; preds = %3
  %20 = load ptr, ptr %5, align 8, !tbaa !22
  store ptr %20, ptr %4, align 8
  br label %44

21:                                               ; preds = %3
  call void @llvm.lifetime.start.p0(i64 80, ptr %8) #18
  %22 = load ptr, ptr %6, align 8, !tbaa !24
  call void @_ZN4Luau7NotNullINS_9TypeArenaEEC2EPS1_(ptr noundef nonnull align 8 dereferenceable(8) %9, ptr noundef %22)
  %23 = load ptr, ptr %7, align 8, !tbaa !26
  %24 = getelementptr inbounds nuw %"struct.Luau::CloneState", ptr %23, i32 0, i32 0
  call void @llvm.memcpy.p0.p0.i64(ptr align 8 %10, ptr align 8 %24, i64 8, i1 false), !tbaa.struct !31
  %25 = load ptr, ptr %7, align 8, !tbaa !26
  %26 = getelementptr inbounds nuw %"struct.Luau::CloneState", ptr %25, i32 0, i32 1
  call void @_ZN4Luau7NotNullISt13unordered_mapIPKNS_4TypeES4_St4hashIS4_ESt8equal_toIS4_ESaISt4pairIKS4_S4_EEEEC2EPSD_(ptr noundef nonnull align 8 dereferenceable(8) %11, ptr noundef %26)
  %27 = load ptr, ptr %7, align 8, !tbaa !26
  %28 = getelementptr inbounds nuw %"struct.Luau::CloneState", ptr %27, i32 0, i32 2
  call void @_ZN4Luau7NotNullISt13unordered_mapIPKNS_11TypePackVarES4_St4hashIS4_ESt8equal_toIS4_ESaISt4pairIKS4_S4_EEEEC2EPSD_(ptr noundef nonnull align 8 dereferenceable(8) %12, ptr noundef %28)
  %29 = getelementptr inbounds nuw %"struct.Luau::NotNull", ptr %9, i32 0, i32 0
  %30 = load ptr, ptr %29, align 8
  %31 = getelementptr inbounds nuw %"struct.Luau::NotNull.1", ptr %10, i32 0, i32 0
  %32 = load ptr, ptr %31, align 8
  %33 = getelementptr inbounds nuw %"struct.Luau::NotNull.2", ptr %11, i32 0, i32 0
  %34 = load ptr, ptr %33, align 8
  %35 = getelementptr inbounds nuw %"struct.Luau::NotNull.3", ptr %12, i32 0, i32 0
  %36 = load ptr, ptr %35, align 8
  call void @_ZN4Luau12_GLOBAL__N_110TypeClonerC2ENS_7NotNullINS_9TypeArenaEEENS2_INS_12BuiltinTypesEEENS2_ISt13unordered_mapIPKNS_4TypeESA_St4hashISA_ESt8equal_toISA_ESaISt4pairIKSA_SA_EEEEENS2_IS7_IPKNS_11TypePackVarESN_SB_ISN_ESD_ISN_ESaISF_IKSN_SN_EEEEESA_SN_(ptr noundef nonnull align 8 dereferenceable(76) %8, ptr %30, ptr %32, ptr %34, ptr %36, ptr noundef null, ptr noundef null)
  %37 = load ptr, ptr %5, align 8, !tbaa !22
  %38 = invoke noundef ptr @_ZN4Luau12_GLOBAL__N_110TypeCloner5cloneEPKNS_11TypePackVarE(ptr noundef nonnull align 8 dereferenceable(76) %8, ptr noundef %37)
          to label %39 unwind label %40

39:                                               ; preds = %21
  store ptr %38, ptr %4, align 8
  call void @_ZN4Luau12_GLOBAL__N_110TypeClonerD2Ev(ptr noundef nonnull align 8 dereferenceable(76) %8) #18
  call void @llvm.lifetime.end.p0(i64 80, ptr %8) #18
  br label %44

40:                                               ; preds = %21
  %41 = landingpad { ptr, i32 }
          cleanup
  %42 = extractvalue { ptr, i32 } %41, 0
  store ptr %42, ptr %13, align 8
  %43 = extractvalue { ptr, i32 } %41, 1
  store i32 %43, ptr %14, align 4
  call void @_ZN4Luau12_GLOBAL__N_110TypeClonerD2Ev(ptr noundef nonnull align 8 dereferenceable(76) %8) #18
  call void @llvm.lifetime.end.p0(i64 80, ptr %8) #18
  br label %46

44:                                               ; preds = %39, %19
  %45 = load ptr, ptr %4, align 8
  ret ptr %45

46:                                               ; preds = %40
  %47 = load ptr, ptr %13, align 8
  %48 = load i32, ptr %14, align 4
  %49 = insertvalue { ptr, i32 } poison, ptr %47, 0
  %50 = insertvalue { ptr, i32 } %49, i32 %48, 1
  resume { ptr, i32 } %50
}